target datalayout = "e-m:e-p270:32:32-p271:32:32-p272:64:64-i64:64-i128:128-f80:128-n8:16:32:64-S128"
target triple = "x86_64-unknown-linux-gnu"

%struct.MemoryRegionOps = type { ptr, ptr, ptr, ptr, i32, %struct.anon.14, %struct.anon.15 }
%struct.anon.14 = type { i32, i32, i8, ptr }
%struct.anon.15 = type { i32, i32, i8 }
%struct.EHCIState = type { %struct.USBBus, ptr, ptr, %struct.MemoryRegion, ptr, %struct.MemoryRegion, %struct.MemoryRegion, %struct.MemoryRegion, i32, i8, i16, i16, i16, i16, i32, [16 x i8], %union.anon.5, [6 x i32], ptr, ptr, i8, i32, i32, [6 x %struct.USBPort], [6 x ptr], i32, i32, %union.EHCIQueueHead, %union.EHCIQueueHead, i32, i32, %struct.USBPacket, %struct.QEMUSGList, i64, i32, i32, i8, ptr }
%struct.USBBus = type { %struct.BusState, ptr, i32, i32, i32, %union.anon, %union.anon.0, %union.anon.1 }
%struct.BusState = type { %struct.Object, ptr, ptr, ptr, i32, i8, i8, i32, %union.BusChildHead, %struct.BusStateEntry, %struct.ResettableState }
%struct.Object = type { ptr, ptr, ptr, i32, ptr }
%union.BusChildHead = type { %struct.QTailQLink }
%struct.QTailQLink = type { ptr, ptr }
%struct.BusStateEntry = type { ptr, ptr }
%struct.ResettableState = type { i32, i8, i8 }
%union.anon = type { %struct.QTailQLink }
%union.anon.0 = type { %struct.QTailQLink }
%union.anon.1 = type { %struct.QTailQLink }
%struct.MemoryRegion = type { %struct.Object, i8, i8, i8, i8, i8, i8, i8, i8, i8, i8, ptr, ptr, ptr, ptr, ptr, ptr, i32, i128, i64, ptr, i64, i8, i8, i8, i8, i8, ptr, i64, i32, %union.anon.2, %union.anon.3, %union.anon.4, ptr, i32, ptr, ptr, i8 }
%union.anon.2 = type { %struct.QTailQLink }
%union.anon.3 = type { %struct.QTailQLink }
%union.anon.4 = type { %struct.QTailQLink }
%union.anon.5 = type { [17 x i32] }
%struct.USBPort = type { ptr, i32, i32, [16 x i8], ptr, ptr, i32, %union.anon.6 }
%union.anon.6 = type { %struct.QTailQLink }
%union.EHCIQueueHead = type { %struct.QTailQLink }
%struct.USBPacket = type { i32, i64, ptr, i32, %struct.QEMUIOVector, i64, i8, i8, i32, i32, i32, ptr, %union.anon.10, %union.anon.11 }
%struct.QEMUIOVector = type { ptr, i32, %union.anon.7 }
%union.anon.7 = type { %struct.anon.8 }
%struct.anon.8 = type { i32, %struct.iovec }
%struct.iovec = type { ptr, i64 }
%union.anon.10 = type { %struct.QTailQLink }
%union.anon.11 = type { %struct.QTailQLink }
%struct.QEMUSGList = type { ptr, i32, i32, i64, ptr, ptr }

@.str.28 = private unnamed_addr constant [5 x i8] c"ehci\00", align 1
@ehci_mmio_caps_ops = internal constant %struct.MemoryRegionOps { ptr @ehci_caps_read, ptr @ehci_caps_write, ptr null, ptr null, i32 2, %struct.anon.14 { i32 1, i32 4, i8 0, ptr null }, %struct.anon.15 { i32 1, i32 1, i8 0 } }, align 8
@.str.29 = private unnamed_addr constant [13 x i8] c"capabilities\00", align 1
@ehci_mmio_opreg_ops = internal constant %struct.MemoryRegionOps { ptr @ehci_opreg_read, ptr @ehci_opreg_write, ptr null, ptr null, i32 2, %struct.anon.14 { i32 4, i32 4, i8 0, ptr null }, %struct.anon.15 zeroinitializer }, align 8
@.str.30 = private unnamed_addr constant [12 x i8] c"operational\00", align 1
@ehci_mmio_port_ops = internal constant %struct.MemoryRegionOps { ptr @ehci_port_read, ptr @ehci_port_write, ptr null, ptr null, i32 2, %struct.anon.14 { i32 4, i32 4, i8 0, ptr null }, %struct.anon.15 zeroinitializer }, align 8
@.str.31 = private unnamed_addr constant [6 x i8] c"ports\00", align 1

; Function Attrs: nounwind sspstrong uwtable
define dso_local void @usb_ehci_init(ptr noundef %s, ptr noundef %dev) #0 {
entry:
  %s.addr = alloca ptr, align 8
  %dev.addr = alloca ptr, align 8
  store ptr %s, ptr %s.addr, align 8
  store ptr %dev, ptr %dev.addr, align 8
  %0 = load ptr, ptr %s.addr, align 8
  %opregbase = getelementptr inbounds %struct.EHCIState, ptr %0, i32 0, i32 11
  %1 = load i16, ptr %opregbase, align 8
  %conv = zext i16 %1 to i32
  %2 = load ptr, ptr %s.addr, align 8
  %capsbase = getelementptr inbounds %struct.EHCIState, ptr %2, i32 0, i32 10
  %3 = load i16, ptr %capsbase, align 2
  %conv1 = zext i16 %3 to i32
  %sub = sub i32 %conv, %conv1
  %conv2 = trunc i32 %sub to i8
  %4 = load ptr, ptr %s.addr, align 8
  %caps = getelementptr inbounds %struct.EHCIState, ptr %4, i32 0, i32 15
  %arrayidx = getelementptr [16 x i8], ptr %caps, i64 0, i64 0
  store i8 %conv2, ptr %arrayidx, align 4
  %5 = load ptr, ptr %s.addr, align 8
  %caps3 = getelementptr inbounds %struct.EHCIState, ptr %5, i32 0, i32 15
  %arrayidx4 = getelementptr [16 x i8], ptr %caps3, i64 0, i64 1
  store i8 0, ptr %arrayidx4, align 1
  %6 = load ptr, ptr %s.addr, align 8
  %caps5 = getelementptr inbounds %struct.EHCIState, ptr %6, i32 0, i32 15
  %arrayidx6 = getelementptr [16 x i8], ptr %caps5, i64 0, i64 2
  store i8 0, ptr %arrayidx6, align 2
  %7 = load ptr, ptr %s.addr, align 8
  %caps7 = getelementptr inbounds %struct.EHCIState, ptr %7, i32 0, i32 15
  %arrayidx8 = getelementptr [16 x i8], ptr %caps7, i64 0, i64 3
  store i8 1, ptr %arrayidx8, align 1
  %8 = load ptr, ptr %s.addr, align 8
  %portnr = getelementptr inbounds %struct.EHCIState, ptr %8, i32 0, i32 13
  %9 = load i16, ptr %portnr, align 4
  %conv9 = trunc i16 %9 to i8
  %10 = load ptr, ptr %s.addr, align 8
  %caps10 = getelementptr inbounds %struct.EHCIState, ptr %10, i32 0, i32 15
  %arrayidx11 = getelementptr [16 x i8], ptr %caps10, i64 0, i64 4
  store i8 %conv9, ptr %arrayidx11, align 4
  %11 = load ptr, ptr %s.addr, align 8
  %caps12 = getelementptr inbounds %struct.EHCIState, ptr %11, i32 0, i32 15
  %arrayidx13 = getelementptr [16 x i8], ptr %caps12, i64 0, i64 5
  store i8 0, ptr %arrayidx13, align 1
  %12 = load ptr, ptr %s.addr, align 8
  %caps14 = getelementptr inbounds %struct.EHCIState, ptr %12, i32 0, i32 15
  %arrayidx15 = getelementptr [16 x i8], ptr %caps14, i64 0, i64 6
  store i8 0, ptr %arrayidx15, align 2
  %13 = load ptr, ptr %s.addr, align 8
  %caps16 = getelementptr inbounds %struct.EHCIState, ptr %13, i32 0, i32 15
  %arrayidx17 = getelementptr [16 x i8], ptr %caps16, i64 0, i64 7
  store i8 0, ptr %arrayidx17, align 1
  %14 = load ptr, ptr %s.addr, align 8
  %caps18 = getelementptr inbounds %struct.EHCIState, ptr %14, i32 0, i32 15
  %arrayidx19 = getelementptr [16 x i8], ptr %caps18, i64 0, i64 8
  store i8 -128, ptr %arrayidx19, align 4
  %15 = load ptr, ptr %s.addr, align 8
  %caps20 = getelementptr inbounds %struct.EHCIState, ptr %15, i32 0, i32 15
  %arrayidx21 = getelementptr [16 x i8], ptr %caps20, i64 0, i64 10
  store i8 0, ptr %arrayidx21, align 2
  %16 = load ptr, ptr %s.addr, align 8
  %caps22 = getelementptr inbounds %struct.EHCIState, ptr %16, i32 0, i32 15
  %arrayidx23 = getelementptr [16 x i8], ptr %caps22, i64 0, i64 11
  store i8 0, ptr %arrayidx23, align 1
  br label %do.body

do.body:                                          ; preds = %entry
  %17 = load ptr, ptr %s.addr, align 8
  %aqueues = getelementptr inbounds %struct.EHCIState, ptr %17, i32 0, i32 27
  store ptr null, ptr %aqueues, align 8
  %18 = load ptr, ptr %s.addr, align 8
  %aqueues24 = getelementptr inbounds %struct.EHCIState, ptr %18, i32 0, i32 27
  %19 = load ptr, ptr %s.addr, align 8
  %aqueues25 = getelementptr inbounds %struct.EHCIState, ptr %19, i32 0, i32 27
  %tql_prev = getelementptr inbounds %struct.QTailQLink, ptr %aqueues25, i32 0, i32 1
  store ptr %aqueues24, ptr %tql_prev, align 8
  br label %do.end

do.end:                                           ; preds = %do.body
  br label %do.body26

do.body26:                                        ; preds = %do.end
  %20 = load ptr, ptr %s.addr, align 8
  %pqueues = getelementptr inbounds %struct.EHCIState, ptr %20, i32 0, i32 28
  store ptr null, ptr %pqueues, align 8
  %21 = load ptr, ptr %s.addr, align 8
  %pqueues27 = getelementptr inbounds %struct.EHCIState, ptr %21, i32 0, i32 28
  %22 = load ptr, ptr %s.addr, align 8
  %pqueues28 = getelementptr inbounds %struct.EHCIState, ptr %22, i32 0, i32 28
  %tql_prev29 = getelementptr inbounds %struct.QTailQLink, ptr %pqueues28, i32 0, i32 1
  store ptr %pqueues27, ptr %tql_prev29, align 8
  br label %do.end30

do.end30:                                         ; preds = %do.body26
  %23 = load ptr, ptr %s.addr, align 8
  %ipacket = getelementptr inbounds %struct.EHCIState, ptr %23, i32 0, i32 31
  call void @usb_packet_init(ptr noundef %ipacket)
  %24 = load ptr, ptr %s.addr, align 8
  %mem = getelementptr inbounds %struct.EHCIState, ptr %24, i32 0, i32 3
  %25 = load ptr, ptr %dev.addr, align 8
  call void @memory_region_init(ptr noundef %mem, ptr noundef %25, ptr noundef @.str.28, i64 noundef 4096)
  %26 = load ptr, ptr %s.addr, align 8
  %mem_caps = getelementptr inbounds %struct.EHCIState, ptr %26, i32 0, i32 5
  %27 = load ptr, ptr %dev.addr, align 8
  %28 = load ptr, ptr %s.addr, align 8
  call void @memory_region_init_io(ptr noundef %mem_caps, ptr noundef %27, ptr noundef @ehci_mmio_caps_ops, ptr noundef %28, ptr noundef @.str.29, i64 noundef 16)
  %29 = load ptr, ptr %s.addr, align 8
  %mem_opreg = getelementptr inbounds %struct.EHCIState, ptr %29, i32 0, i32 6
  %30 = load ptr, ptr %dev.addr, align 8
  %31 = load ptr, ptr %s.addr, align 8
  %32 = load ptr, ptr %s.addr, align 8
  %portscbase = getelementptr inbounds %struct.EHCIState, ptr %32, i32 0, i32 12
  %33 = load i16, ptr %portscbase, align 2
  %conv31 = zext i16 %33 to i64
  call void @memory_region_init_io(ptr noundef %mem_opreg, ptr noundef %30, ptr noundef @ehci_mmio_opreg_ops, ptr noundef %31, ptr noundef @.str.30, i64 noundef %conv31)
  %34 = load ptr, ptr %s.addr, align 8
  %mem_ports = getelementptr inbounds %struct.EHCIState, ptr %34, i32 0, i32 7
  %35 = load ptr, ptr %dev.addr, align 8
  %36 = load ptr, ptr %s.addr, align 8
  %37 = load ptr, ptr %s.addr, align 8
  %portnr32 = getelementptr inbounds %struct.EHCIState, ptr %37, i32 0, i32 13
  %38 = load i16, ptr %portnr32, align 4
  %conv33 = zext i16 %38 to i32
  %mul = mul i32 4, %conv33
  %conv34 = sext i32 %mul to i64
  call void @memory_region_init_io(ptr noundef %mem_ports, ptr noundef %35, ptr noundef @ehci_mmio_port_ops, ptr noundef %36, ptr noundef @.str.31, i64 noundef %conv34)
  ret void
}