; Function Attrs: nounwind sspstrong uwtable
define dso_local void @usb_ehci_init(ptr noundef initializes((1332, 1341), (1342, 1344), (1960, 1968)) %s, ptr noundef %dev) local_unnamed_addr #0 {
entry:
  %opregbase = getelementptr inbounds nuw i8, ptr %s, i64 1320
  %0 = load i16, ptr %opregbase, align 8
  %conv = trunc i16 %0 to i8
  %capsbase = getelementptr inbounds nuw i8, ptr %s, i64 1318
  %1 = load i16, ptr %capsbase, align 2
  %conv1 = trunc i16 %1 to i8
  %sub = sub i8 %conv, %conv1
  %caps = getelementptr inbounds nuw i8, ptr %s, i64 1332
  store i8 %sub, ptr %caps, align 4
  %arrayidx4 = getelementptr i8, ptr %s, i64 1333
  store i8 0, ptr %arrayidx4, align 1
  %arrayidx6 = getelementptr i8, ptr %s, i64 1334
  store i8 0, ptr %arrayidx6, align 2
  %arrayidx8 = getelementptr i8, ptr %s, i64 1335
  store i8 1, ptr %arrayidx8, align 1
  %portnr = getelementptr inbounds nuw i8, ptr %s, i64 1324
  %2 = load i16, ptr %portnr, align 4
  %conv9 = trunc i16 %2 to i8
  %arrayidx11 = getelementptr i8, ptr %s, i64 1336
  store i8 %conv9, ptr %arrayidx11, align 4
  %arrayidx13 = getelementptr i8, ptr %s, i64 1337
  store i8 0, ptr %arrayidx13, align 1
  %arrayidx15 = getelementptr i8, ptr %s, i64 1338
  store i8 0, ptr %arrayidx15, align 2
  %arrayidx17 = getelementptr i8, ptr %s, i64 1339
  store i8 0, ptr %arrayidx17, align 1
  %arrayidx19 = getelementptr i8, ptr %s, i64 1340
  store i8 -128, ptr %arrayidx19, align 4
  %arrayidx21 = getelementptr i8, ptr %s, i64 1342
  store i8 0, ptr %arrayidx21, align 2
  %arrayidx23 = getelementptr i8, ptr %s, i64 1343
  store i8 0, ptr %arrayidx23, align 1
  %aqueues = getelementptr inbounds nuw i8, ptr %s, i64 1960
  store ptr null, ptr %aqueues, align 8
  %tql_prev = getelementptr inbounds nuw i8, ptr %s, i64 1968
  store ptr %aqueues, ptr %tql_prev, align 8
  %pqueues = getelementptr inbounds nuw i8, ptr %s, i64 1976
  store ptr null, ptr %pqueues, align 8
  %tql_prev29 = getelementptr inbounds nuw i8, ptr %s, i64 1984
  store ptr %pqueues, ptr %tql_prev29, align 8
  %ipacket = getelementptr inbounds nuw i8, ptr %s, i64 2000
  tail call void @usb_packet_init(ptr noundef nonnull %ipacket) #17
  %mem = getelementptr inbounds nuw i8, ptr %s, i64 208
  tail call void @memory_region_init(ptr noundef nonnull %mem, ptr noundef %dev, ptr noundef nonnull @.str.28, i64 noundef 4096) #17
  %mem_caps = getelementptr inbounds nuw i8, ptr %s, i64 496
  tail call void @memory_region_init_io(ptr noundef nonnull %mem_caps, ptr noundef %dev, ptr noundef nonnull @ehci_mmio_caps_ops, ptr noundef %s, ptr noundef nonnull @.str.29, i64 noundef 16) #17
  %mem_opreg = getelementptr inbounds nuw i8, ptr %s, i64 768
  %portscbase = getelementptr inbounds nuw i8, ptr %s, i64 1322
  %3 = load i16, ptr %portscbase, align 2
  %conv31 = zext i16 %3 to i64
  tail call void @memory_region_init_io(ptr noundef nonnull %mem_opreg, ptr noundef %dev, ptr noundef nonnull @ehci_mmio_opreg_ops, ptr noundef %s, ptr noundef nonnull @.str.30, i64 noundef %conv31) #17
  %mem_ports = getelementptr inbounds nuw i8, ptr %s, i64 1040
  %4 = load i16, ptr %portnr, align 4
  %conv33 = zext i16 %4 to i64
  %mul = shl nuw nsw i64 %conv33, 2
  tail call void @memory_region_init_io(ptr noundef nonnull %mem_ports, ptr noundef %dev, ptr noundef nonnull @ehci_mmio_port_ops, ptr noundef %s, ptr noundef nonnull @.str.31, i64 noundef %mul) #17
  ret void
}